; Function Attrs: mustprogress nounwind uwtable
define hidden noundef ptr @_ZN10Management33load_and_initialize_klass_or_nullEP6SymbolP10JavaThread(ptr noundef %0, ptr noundef %1) local_unnamed_addr #0 align 2 {
  %3 = tail call noundef ptr @_ZN16SystemDictionary15resolve_or_nullEP6Symbol6HandleS2_P10JavaThread(ptr noundef %0, ptr null, ptr null, ptr noundef %1) #17
  %4 = getelementptr inbounds i8, ptr %1, i64 8
  %5 = load ptr, ptr %4, align 8
  %6 = icmp ne ptr %5, null
  %7 = icmp eq ptr %3, null
  %or.cond = or i1 %7, %6
  br i1 %or.cond, label %_ZN10Management16initialize_klassEP5KlassP10JavaThread.exit, label %8

8:                                                ; preds = %2
  %9 = load ptr, ptr %3, align 8
  %10 = getelementptr inbounds i8, ptr %9, i64 168
  %11 = load ptr, ptr %10, align 8
  %12 = tail call noundef zeroext i1 %11(ptr noundef nonnull align 8 dereferenceable(464) %3) #17
  br i1 %12, label %13, label %18

13:                                               ; preds = %8
  %14 = load ptr, ptr %3, align 8
  %15 = getelementptr inbounds i8, ptr %14, i64 176
  %16 = load ptr, ptr %15, align 8
  tail call void %16(ptr noundef nonnull align 8 dereferenceable(464) %3, ptr noundef nonnull %1) #17
  %17 = load ptr, ptr %4, align 8
  %.not.i = icmp eq ptr %17, null
  br i1 %.not.i, label %18, label %_ZN10Management16initialize_klassEP5KlassP10JavaThread.exit

18:                                               ; preds = %13, %8
  br label %_ZN10Management16initialize_klassEP5KlassP10JavaThread.exit

_ZN10Management16initialize_klassEP5KlassP10JavaThread.exit: ; preds = %18, %13, %2
  %.0 = phi ptr [ null, %2 ], [ %3, %18 ], [ null, %13 ]
  ret ptr %.0
}